; ModuleID = '61/908.c'
source_filename = "61/908.c"
target datalayout = "e-m:e-p270:32:32-p271:32:32-p272:64:64-i64:64-f80:128-n8:16:32:64-S128"
target triple = "x86_64-pc-linux-gnu"

@a = dso_local global <{ i32, i32, i32, [19 x i32] }> <{ i32 0, i32 1, i32 1, [19 x i32] zeroinitializer }>, align 16
@.str = private unnamed_addr constant [3 x i8] c"%d\00", align 1
@.str.1 = private unnamed_addr constant [4 x i8] c"%d\0A\00", align 1

; Function Attrs: noinline nounwind uwtable
define dso_local i32 @fibo(i32 %0) #0 {
  %2 = alloca i32, align 4
  %3 = alloca i32, align 4
  store i32 %0, i32* %3, align 4
  %4 = load i32, i32* %3, align 4
  %5 = icmp eq i32 %4, 1
  br i1 %5, label %9, label %6

6:                                                ; preds = %1
  %7 = load i32, i32* %3, align 4
  %8 = icmp eq i32 %7, 2
  br i1 %8, label %9, label %10

9:                                                ; preds = %6, %1
  store i32 1, i32* %2, align 4
  br label %33

10:                                               ; preds = %6
  %11 = load i32, i32* %3, align 4
  %12 = sext i32 %11 to i64
  %13 = getelementptr inbounds [22 x i32], [22 x i32]* bitcast (<{ i32, i32, i32, [19 x i32] }>* @a to [22 x i32]*), i64 0, i64 %12
  %14 = load i32, i32* %13, align 4
  %15 = icmp eq i32 %14, 0
  br i1 %15, label %16, label %27

16:                                               ; preds = %10
  %17 = load i32, i32* %3, align 4
  %18 = sub nsw i32 %17, 1
  %19 = call i32 @fibo(i32 %18)
  %20 = load i32, i32* %3, align 4
  %21 = sub nsw i32 %20, 2
  %22 = call i32 @fibo(i32 %21)
  %23 = add nsw i32 %19, %22
  %24 = load i32, i32* %3, align 4
  %25 = sext i32 %24 to i64
  %26 = getelementptr inbounds [22 x i32], [22 x i32]* bitcast (<{ i32, i32, i32, [19 x i32] }>* @a to [22 x i32]*), i64 0, i64 %25
  store i32 %23, i32* %26, align 4
  br label %27

27:                                               ; preds = %16, %10
  br label %28

28:                                               ; preds = %27
  %29 = load i32, i32* %3, align 4
  %30 = sext i32 %29 to i64
  %31 = getelementptr inbounds [22 x i32], [22 x i32]* bitcast (<{ i32, i32, i32, [19 x i32] }>* @a to [22 x i32]*), i64 0, i64 %30
  %32 = load i32, i32* %31, align 4
  store i32 %32, i32* %2, align 4
  br label %33

33:                                               ; preds = %28, %9
  %34 = load i32, i32* %2, align 4
  ret i32 %34
}

; Function Attrs: noinline nounwind uwtable
define dso_local void @main() #0 {
  %1 = alloca i32, align 4
  %2 = alloca i32, align 4
  %3 = call i32 (i8*, ...) @__isoc99_scanf(i8* getelementptr inbounds ([3 x i8], [3 x i8]* @.str, i64 0, i64 0), i32* %2)
  br label %4

4:                                                ; preds = %8, %0
  %5 = load i32, i32* %2, align 4
  %6 = add nsw i32 %5, -1
  store i32 %6, i32* %2, align 4
  %7 = icmp ne i32 %5, 0
  br i1 %7, label %8, label %13

8:                                                ; preds = %4
  %9 = call i32 (i8*, ...) @__isoc99_scanf(i8* getelementptr inbounds ([3 x i8], [3 x i8]* @.str, i64 0, i64 0), i32* %1)
  %10 = load i32, i32* %1, align 4
  %11 = call i32 @fibo(i32 %10)
  %12 = call i32 (i8*, ...) @printf(i8* getelementptr inbounds ([4 x i8], [4 x i8]* @.str.1, i64 0, i64 0), i32 %11)
  br label %4

13:                                               ; preds = %4
  ret void
}

declare dso_local i32 @__isoc99_scanf(i8*, ...) #1

declare dso_local i32 @printf(i8*, ...) #1


!llvm.module.flags = !{!0}
!llvm.ident = !{!1}

!0 = !{i32 1, !"wchar_size", i32 4}
!1 = !{!"clang version 10.0.0-4ubuntu1 "}
